target datalayout = "e-m:e-p270:32:32-p271:32:32-p272:64:64-i64:64-i128:128-f80:128-n8:16:32:64-S128"
target triple = "x86_64-pc-linux-gnu"

%"class.mitsuba::Struct" = type { %"class.mitsuba::Object.base", %"class.std::__1::vector", i8, i32 }
%"class.mitsuba::Object.base" = type <{ ptr, %"struct.std::__1::atomic" }>
%"struct.std::__1::atomic" = type { %"struct.std::__1::__atomic_base" }
%"struct.std::__1::__atomic_base" = type { %"struct.std::__1::__atomic_base.0" }
%"struct.std::__1::__atomic_base.0" = type { %"struct.std::__1::__cxx_atomic_impl" }
%"struct.std::__1::__cxx_atomic_impl" = type { %"struct.std::__1::__cxx_atomic_base_impl" }
%"struct.std::__1::__cxx_atomic_base_impl" = type { i32 }
%"class.std::__1::vector" = type { ptr, ptr, %"class.std::__1::__compressed_pair" }
%"class.std::__1::__compressed_pair" = type { %"struct.std::__1::__compressed_pair_elem" }
%"struct.std::__1::__compressed_pair_elem" = type { ptr }
%"struct.mitsuba::Struct::Field" = type { %"class.std::__1::basic_string", i32, i64, i64, i32, double, %"class.std::__1::vector.9" }
%"class.std::__1::basic_string" = type { %"class.std::__1::__compressed_pair.2" }
%"class.std::__1::__compressed_pair.2" = type { %"struct.std::__1::__compressed_pair_elem.3" }
%"struct.std::__1::__compressed_pair_elem.3" = type { %"struct.std::__1::basic_string<char>::__rep" }
%"struct.std::__1::basic_string<char>::__rep" = type { %union.anon }
%union.anon = type { %"struct.std::__1::basic_string<char>::__long" }
%"struct.std::__1::basic_string<char>::__long" = type { %struct.anon.4, i64, ptr }
%struct.anon.4 = type { i64 }
%"class.std::__1::vector.9" = type { ptr, ptr, %"class.std::__1::__compressed_pair.10" }
%"class.std::__1::__compressed_pair.10" = type { %"struct.std::__1::__compressed_pair_elem.11" }
%"struct.std::__1::__compressed_pair_elem.11" = type { ptr }
%"class.std::__1::__wrap_iter" = type { ptr }
%"struct.std::__1::hash.120" = type { i8 }
%"struct.std::__1::hash.122" = type { i8 }

; Function Attrs: mustprogress nounwind uwtable
define linkonce_odr hidden noundef ptr @_ZNKSt3__111__wrap_iterIPKN7mitsuba6Struct5FieldEE4baseB8ne190000Ev(ptr noundef nonnull align 8 dereferenceable(8) %0) #1 comdat align 2 {
  %2 = alloca ptr, align 8
  store ptr %0, ptr %2, align 8
  %3 = load ptr, ptr %2, align 8
  %4 = getelementptr inbounds %"class.std::__1::__wrap_iter", ptr %3, i32 0, i32 0
  %5 = load ptr, ptr %4, align 8
  ret ptr %5
}

; Function Attrs: mustprogress nounwind uwtable
define linkonce_odr hidden void @_ZNSt3__111__wrap_iterIPKN7mitsuba6Struct5FieldEEC2B8ne190000ES5_(ptr noundef nonnull align 8 dereferenceable(8) %0, ptr noundef %1) unnamed_addr #1 comdat align 2 {
  %3 = alloca ptr, align 8
  %4 = alloca ptr, align 8
  store ptr %0, ptr %3, align 8
  store ptr %1, ptr %4, align 8
  %5 = load ptr, ptr %3, align 8
  %6 = getelementptr inbounds %"class.std::__1::__wrap_iter", ptr %5, i32 0, i32 0
  %7 = load ptr, ptr %4, align 8
  store ptr %7, ptr %6, align 8
  ret void
}

; Function Attrs: mustprogress nounwind uwtable
define linkonce_odr hidden noundef i64 @_ZNKSt3__14hashIiEclB8ne190000Ei(ptr noundef nonnull align 1 dereferenceable(1) %0, i32 noundef %1) #1 comdat align 2 {
  %3 = alloca ptr, align 8
  %4 = alloca i32, align 4
  store ptr %0, ptr %3, align 8
  store i32 %1, ptr %4, align 4
  %5 = load i32, ptr %4, align 4
  %6 = sext i32 %5 to i64
  ret i64 %6
}

; Function Attrs: mustprogress nounwind uwtable
define linkonce_odr hidden noundef zeroext i1 @_ZNSt3__1eqB8ne190000IPKN7mitsuba6Struct5FieldEEEbRKNS_11__wrap_iterIT_EESA_(ptr noundef nonnull align 8 dereferenceable(8) %0, ptr noundef nonnull align 8 dereferenceable(8) %1) #1 comdat {
  %3 = alloca ptr, align 8
  %4 = alloca ptr, align 8
  store ptr %0, ptr %3, align 8
  store ptr %1, ptr %4, align 8
  %5 = load ptr, ptr %3, align 8
  %6 = call noundef ptr @_ZNKSt3__111__wrap_iterIPKN7mitsuba6Struct5FieldEE4baseB8ne190000Ev(ptr noundef nonnull align 8 dereferenceable(8) %5) #7
  %7 = load ptr, ptr %4, align 8
  %8 = call noundef ptr @_ZNKSt3__111__wrap_iterIPKN7mitsuba6Struct5FieldEE4baseB8ne190000Ev(ptr noundef nonnull align 8 dereferenceable(8) %7) #7
  %9 = icmp eq ptr %6, %8
  ret i1 %9
}

; Function Attrs: mustprogress nounwind uwtable
define linkonce_odr hidden ptr @_ZNKSt3__16vectorIN7mitsuba6Struct5FieldENS_9allocatorIS3_EEE11__make_iterB8ne190000EPKS3_(ptr noundef nonnull align 8 dereferenceable(24) %0, ptr noundef %1) #1 comdat align 2 {
  %3 = alloca %"class.std::__1::__wrap_iter", align 8
  %4 = alloca ptr, align 8
  %5 = alloca ptr, align 8
  store ptr %0, ptr %4, align 8
  store ptr %1, ptr %5, align 8
  %6 = load ptr, ptr %5, align 8
  call void @_ZNSt3__111__wrap_iterIPKN7mitsuba6Struct5FieldEEC2B8ne190000ES5_(ptr noundef nonnull align 8 dereferenceable(8) %3, ptr noundef %6) #7
  %7 = getelementptr inbounds %"class.std::__1::__wrap_iter", ptr %3, i32 0, i32 0
  %8 = load ptr, ptr %7, align 8
  ret ptr %8
}

; Function Attrs: mustprogress nounwind uwtable
define linkonce_odr hidden noundef i64 @_ZN7mitsuba4hashIiTnNSt3__19enable_ifIXntsr3stdE9is_enum_vIT_EEiE4typeELi0EEEmRKS3_(ptr noundef nonnull align 4 dereferenceable(4) %0) #1 comdat {
  %2 = alloca ptr, align 8
  %3 = alloca %"struct.std::__1::hash.122", align 1
  store ptr %0, ptr %2, align 8
  %4 = load ptr, ptr %2, align 8
  %5 = load i32, ptr %4, align 4
  %6 = call noundef i64 @_ZNKSt3__14hashIiEclB8ne190000Ei(ptr noundef nonnull align 1 dereferenceable(1) %3, i32 noundef %5) #7
  ret i64 %6
}

; Function Attrs: mustprogress nounwind uwtable
define linkonce_odr hidden noundef i64 @_ZNKSt3__14hashIbEclB8ne190000Eb(ptr noundef nonnull align 1 dereferenceable(1) %0, i1 noundef zeroext %1) #1 comdat align 2 {
  %3 = alloca ptr, align 8
  %4 = alloca i8, align 1
  store ptr %0, ptr %3, align 8
  %5 = zext i1 %1 to i8
  store i8 %5, ptr %4, align 1
  %6 = load i8, ptr %4, align 1
  %7 = trunc i8 %6 to i1
  %8 = zext i1 %7 to i64
  ret i64 %8
}

; Function Attrs: mustprogress nounwind uwtable
define linkonce_odr hidden noundef nonnull align 8 dereferenceable(8) ptr @_ZNSt3__111__wrap_iterIPKN7mitsuba6Struct5FieldEEppB8ne190000Ev(ptr noundef nonnull align 8 dereferenceable(8) %0) #1 comdat align 2 {
  %2 = alloca ptr, align 8
  store ptr %0, ptr %2, align 8
  %3 = load ptr, ptr %2, align 8
  %4 = getelementptr inbounds %"class.std::__1::__wrap_iter", ptr %3, i32 0, i32 0
  %5 = load ptr, ptr %4, align 8
  %6 = getelementptr inbounds %"struct.mitsuba::Struct::Field", ptr %5, i32 1
  store ptr %6, ptr %4, align 8
  ret ptr %3
}

; Function Attrs: mustprogress nounwind uwtable
define linkonce_odr hidden noundef nonnull align 8 dereferenceable(88) ptr @_ZNKSt3__111__wrap_iterIPKN7mitsuba6Struct5FieldEEdeB8ne190000Ev(ptr noundef nonnull align 8 dereferenceable(8) %0) #1 comdat align 2 {
  %2 = alloca ptr, align 8
  store ptr %0, ptr %2, align 8
  %3 = load ptr, ptr %2, align 8
  %4 = getelementptr inbounds %"class.std::__1::__wrap_iter", ptr %3, i32 0, i32 0
  %5 = load ptr, ptr %4, align 8
  ret ptr %5
}

; Function Attrs: mustprogress nounwind uwtable
define linkonce_odr hidden noundef zeroext i1 @_ZNSt3__1neB8ne190000IPKN7mitsuba6Struct5FieldEEEbRKNS_11__wrap_iterIT_EESA_(ptr noundef nonnull align 8 dereferenceable(8) %0, ptr noundef nonnull align 8 dereferenceable(8) %1) #1 comdat {
  %3 = alloca ptr, align 8
  %4 = alloca ptr, align 8
  store ptr %0, ptr %3, align 8
  store ptr %1, ptr %4, align 8
  %5 = load ptr, ptr %3, align 8
  %6 = load ptr, ptr %4, align 8
  %7 = call noundef zeroext i1 @_ZNSt3__1eqB8ne190000IPKN7mitsuba6Struct5FieldEEEbRKNS_11__wrap_iterIT_EESA_(ptr noundef nonnull align 8 dereferenceable(8) %5, ptr noundef nonnull align 8 dereferenceable(8) %6) #7
  %8 = xor i1 %7, true
  ret i1 %8
}

; Function Attrs: mustprogress nounwind uwtable
define linkonce_odr hidden ptr @_ZNKSt3__16vectorIN7mitsuba6Struct5FieldENS_9allocatorIS3_EEE3endB8ne190000Ev(ptr noundef nonnull align 8 dereferenceable(24) %0) #1 comdat align 2 {
  %2 = alloca %"class.std::__1::__wrap_iter", align 8
  %3 = alloca ptr, align 8
  store ptr %0, ptr %3, align 8
  %4 = load ptr, ptr %3, align 8
  %5 = getelementptr inbounds %"class.std::__1::vector", ptr %4, i32 0, i32 1
  %6 = load ptr, ptr %5, align 8
  %7 = call ptr @_ZNKSt3__16vectorIN7mitsuba6Struct5FieldENS_9allocatorIS3_EEE11__make_iterB8ne190000EPKS3_(ptr noundef nonnull align 8 dereferenceable(24) %4, ptr noundef %6) #7
  %8 = getelementptr inbounds %"class.std::__1::__wrap_iter", ptr %2, i32 0, i32 0
  store ptr %7, ptr %8, align 8
  %9 = getelementptr inbounds %"class.std::__1::__wrap_iter", ptr %2, i32 0, i32 0
  %10 = load ptr, ptr %9, align 8
  ret ptr %10
}

; Function Attrs: mustprogress nounwind uwtable
define linkonce_odr hidden ptr @_ZNKSt3__16vectorIN7mitsuba6Struct5FieldENS_9allocatorIS3_EEE5beginB8ne190000Ev(ptr noundef nonnull align 8 dereferenceable(24) %0) #1 comdat align 2 {
  %2 = alloca %"class.std::__1::__wrap_iter", align 8
  %3 = alloca ptr, align 8
  store ptr %0, ptr %3, align 8
  %4 = load ptr, ptr %3, align 8
  %5 = getelementptr inbounds %"class.std::__1::vector", ptr %4, i32 0, i32 0
  %6 = load ptr, ptr %5, align 8
  %7 = call ptr @_ZNKSt3__16vectorIN7mitsuba6Struct5FieldENS_9allocatorIS3_EEE11__make_iterB8ne190000EPKS3_(ptr noundef nonnull align 8 dereferenceable(24) %4, ptr noundef %6) #7
  %8 = getelementptr inbounds %"class.std::__1::__wrap_iter", ptr %2, i32 0, i32 0
  store ptr %7, ptr %8, align 8
  %9 = getelementptr inbounds %"class.std::__1::__wrap_iter", ptr %2, i32 0, i32 0
  %10 = load ptr, ptr %9, align 8
  ret ptr %10
}

; Function Attrs: mustprogress uwtable
define linkonce_odr hidden noundef i64 @_ZN7mitsuba4hashINS_6Struct9ByteOrderETnNSt3__19enable_ifIXsr3stdE9is_enum_vIT_EEiE4typeELi0EEEmRKS5_(ptr noundef nonnull align 4 dereferenceable(4) %0) #0 comdat {
  %2 = alloca ptr, align 8
  %3 = alloca i32, align 4
  store ptr %0, ptr %2, align 8
  %4 = load ptr, ptr %2, align 8
  %5 = load i32, ptr %4, align 4
  store i32 %5, ptr %3, align 4
  %6 = call noundef i64 @_ZN7mitsuba4hashIiTnNSt3__19enable_ifIXntsr3stdE9is_enum_vIT_EEiE4typeELi0EEEmRKS3_(ptr noundef nonnull align 4 dereferenceable(4) %3)
  ret i64 %6
}

; Function Attrs: mustprogress nounwind uwtable
define linkonce_odr hidden noundef i64 @_ZN7mitsuba12hash_combineEmm(i64 noundef %0, i64 noundef %1) #1 comdat {
  %3 = alloca i64, align 8
  %4 = alloca i64, align 8
  store i64 %0, ptr %3, align 8
  store i64 %1, ptr %4, align 8
  %5 = load i64, ptr %4, align 8
  %6 = load i64, ptr %3, align 8
  %7 = add i64 %6, 2654435769
  %8 = load i64, ptr %4, align 8
  %9 = shl i64 %8, 6
  %10 = add i64 %7, %9
  %11 = load i64, ptr %4, align 8
  %12 = lshr i64 %11, 2
  %13 = add i64 %10, %12
  %14 = xor i64 %5, %13
  ret i64 %14
}

; Function Attrs: mustprogress nounwind uwtable
define linkonce_odr hidden noundef i64 @_ZN7mitsuba4hashIbTnNSt3__19enable_ifIXntsr3stdE9is_enum_vIT_EEiE4typeELi0EEEmRKS3_(ptr noundef nonnull align 1 dereferenceable(1) %0) #1 comdat {
  %2 = alloca ptr, align 8
  %3 = alloca %"struct.std::__1::hash.120", align 1
  store ptr %0, ptr %2, align 8
  %4 = load ptr, ptr %2, align 8
  %5 = load i8, ptr %4, align 1
  %6 = trunc i8 %5 to i1
  %7 = call noundef i64 @_ZNKSt3__14hashIbEclB8ne190000Eb(ptr noundef nonnull align 1 dereferenceable(1) %3, i1 noundef zeroext %6) #7
  ret i64 %7
}

; Function Attrs: mustprogress uwtable
define linkonce_odr hidden noundef i64 @_ZN7mitsuba4hashINS_6Struct5FieldENSt3__19allocatorIS2_EEEEmRKNS3_6vectorIT_T0_EE(ptr noundef nonnull align 8 dereferenceable(24) %0) #0 comdat {
  %2 = alloca ptr, align 8
  %3 = alloca i64, align 8
  %4 = alloca ptr, align 8
  %5 = alloca %"class.std::__1::__wrap_iter", align 8
  %6 = alloca %"class.std::__1::__wrap_iter", align 8
  %7 = alloca ptr, align 8
  store ptr %0, ptr %2, align 8
  store i64 0, ptr %3, align 8
  %8 = load ptr, ptr %2, align 8
  store ptr %8, ptr %4, align 8
  %9 = load ptr, ptr %4, align 8
  %10 = call ptr @_ZNKSt3__16vectorIN7mitsuba6Struct5FieldENS_9allocatorIS3_EEE5beginB8ne190000Ev(ptr noundef nonnull align 8 dereferenceable(24) %9) #7
  %11 = getelementptr inbounds %"class.std::__1::__wrap_iter", ptr %5, i32 0, i32 0
  store ptr %10, ptr %11, align 8
  %12 = load ptr, ptr %4, align 8
  %13 = call ptr @_ZNKSt3__16vectorIN7mitsuba6Struct5FieldENS_9allocatorIS3_EEE3endB8ne190000Ev(ptr noundef nonnull align 8 dereferenceable(24) %12) #7
  %14 = getelementptr inbounds %"class.std::__1::__wrap_iter", ptr %6, i32 0, i32 0
  store ptr %13, ptr %14, align 8
  br label %15

15:                                               ; preds = %23, %1
  %16 = call noundef zeroext i1 @_ZNSt3__1neB8ne190000IPKN7mitsuba6Struct5FieldEEEbRKNS_11__wrap_iterIT_EESA_(ptr noundef nonnull align 8 dereferenceable(8) %5, ptr noundef nonnull align 8 dereferenceable(8) %6) #7
  br i1 %16, label %17, label %25

17:                                               ; preds = %15
  %18 = call noundef nonnull align 8 dereferenceable(88) ptr @_ZNKSt3__111__wrap_iterIPKN7mitsuba6Struct5FieldEEdeB8ne190000Ev(ptr noundef nonnull align 8 dereferenceable(8) %5) #7
  store ptr %18, ptr %7, align 8
  %19 = load i64, ptr %3, align 8
  %20 = load ptr, ptr %7, align 8
  %21 = call noundef i64 @_ZN7mitsuba4hashERKNS_6Struct5FieldE(ptr noundef nonnull align 8 dereferenceable(88) %20)
  %22 = call noundef i64 @_ZN7mitsuba12hash_combineEmm(i64 noundef %19, i64 noundef %21)
  store i64 %22, ptr %3, align 8
  br label %23

23:                                               ; preds = %17
  %24 = call noundef nonnull align 8 dereferenceable(8) ptr @_ZNSt3__111__wrap_iterIPKN7mitsuba6Struct5FieldEEppB8ne190000Ev(ptr noundef nonnull align 8 dereferenceable(8) %5) #7
  br label %15

25:                                               ; preds = %15
  %26 = load i64, ptr %3, align 8
  ret i64 %26
}

; Function Attrs: mustprogress uwtable
define noundef i64 @_ZN7mitsuba4hashERKNS_6StructE(ptr noundef nonnull align 8 dereferenceable(48) %0) #0 {
  %2 = alloca ptr, align 8
  store ptr %0, ptr %2, align 8
  %3 = load ptr, ptr %2, align 8
  %4 = getelementptr inbounds %"class.mitsuba::Struct", ptr %3, i32 0, i32 1
  %5 = call noundef i64 @_ZN7mitsuba4hashINS_6Struct5FieldENSt3__19allocatorIS2_EEEEmRKNS3_6vectorIT_T0_EE(ptr noundef nonnull align 8 dereferenceable(24) %4)
  %6 = load ptr, ptr %2, align 8
  %7 = getelementptr inbounds %"class.mitsuba::Struct", ptr %6, i32 0, i32 2
  %8 = call noundef i64 @_ZN7mitsuba4hashIbTnNSt3__19enable_ifIXntsr3stdE9is_enum_vIT_EEiE4typeELi0EEEmRKS3_(ptr noundef nonnull align 1 dereferenceable(1) %7)
  %9 = call noundef i64 @_ZN7mitsuba12hash_combineEmm(i64 noundef %5, i64 noundef %8)
  %10 = load ptr, ptr %2, align 8
  %11 = getelementptr inbounds %"class.mitsuba::Struct", ptr %10, i32 0, i32 3
  %12 = call noundef i64 @_ZN7mitsuba4hashINS_6Struct9ByteOrderETnNSt3__19enable_ifIXsr3stdE9is_enum_vIT_EEiE4typeELi0EEEmRKS5_(ptr noundef nonnull align 4 dereferenceable(4) %11)
  %13 = call noundef i64 @_ZN7mitsuba12hash_combineEmm(i64 noundef %9, i64 noundef %12)
  ret i64 %13
}