; Function Attrs: mustprogress nounwind uwtable
define noundef i64 @_ZN7mitsuba4hashERKNS_6StructE(ptr nocapture noundef nonnull readonly align 8 dereferenceable(48) %0) local_unnamed_addr #7 {
  %2 = getelementptr inbounds i8, ptr %0, i64 16
  %3 = load ptr, ptr %2, align 8
  %4 = getelementptr inbounds i8, ptr %0, i64 24
  %5 = load ptr, ptr %4, align 8
  %.not8.i = icmp eq ptr %3, %5
  br i1 %.not8.i, label %_ZN7mitsuba4hashINS_6Struct5FieldENSt3__19allocatorIS2_EEEEmRKNS3_6vectorIT_T0_EE.exit, label %.lr.ph.i

.lr.ph.i:                                         ; preds = %1, %.lr.ph.i
  %.010.i = phi i64 [ %12, %.lr.ph.i ], [ 0, %1 ]
  %.sroa.05.09.i = phi ptr [ %13, %.lr.ph.i ], [ %3, %1 ]
  %6 = tail call noundef i64 @_ZN7mitsuba4hashERKNS_6Struct5FieldE(ptr noundef nonnull align 8 dereferenceable(88) %.sroa.05.09.i)
  %7 = add i64 %.010.i, 2654435769
  %8 = shl i64 %6, 6
  %9 = add i64 %7, %8
  %10 = lshr i64 %6, 2
  %11 = add i64 %9, %10
  %12 = xor i64 %11, %6
  %13 = getelementptr inbounds i8, ptr %.sroa.05.09.i, i64 88
  %.not.i = icmp eq ptr %13, %5
  br i1 %.not.i, label %_ZN7mitsuba4hashINS_6Struct5FieldENSt3__19allocatorIS2_EEEEmRKNS3_6vectorIT_T0_EE.exit.loopexit, label %.lr.ph.i

_ZN7mitsuba4hashINS_6Struct5FieldENSt3__19allocatorIS2_EEEEmRKNS3_6vectorIT_T0_EE.exit.loopexit: ; preds = %.lr.ph.i
  %14 = add i64 %12, 2654435769
  br label %_ZN7mitsuba4hashINS_6Struct5FieldENSt3__19allocatorIS2_EEEEmRKNS3_6vectorIT_T0_EE.exit

_ZN7mitsuba4hashINS_6Struct5FieldENSt3__19allocatorIS2_EEEEmRKNS3_6vectorIT_T0_EE.exit: ; preds = %_ZN7mitsuba4hashINS_6Struct5FieldENSt3__19allocatorIS2_EEEEmRKNS3_6vectorIT_T0_EE.exit.loopexit, %1
  %.0.lcssa.i = phi i64 [ 2654435769, %1 ], [ %14, %_ZN7mitsuba4hashINS_6Struct5FieldENSt3__19allocatorIS2_EEEEmRKNS3_6vectorIT_T0_EE.exit.loopexit ]
  %15 = getelementptr inbounds i8, ptr %0, i64 40
  %16 = load i8, ptr %15, align 8
  %17 = and i8 %16, 1
  %18 = zext nneg i8 %17 to i64
  %19 = shl nuw nsw i64 %18, 6
  %20 = add i64 %.0.lcssa.i, %19
  %21 = xor i64 %20, %18
  %22 = getelementptr inbounds i8, ptr %0, i64 44
  %23 = load i32, ptr %22, align 4
  %24 = sext i32 %23 to i64
  %25 = shl nsw i64 %24, 6
  %26 = lshr i64 %24, 2
  %27 = add nsw i64 %25, 2654435769
  %28 = add nsw i64 %27, %26
  %29 = add i64 %28, %21
  %30 = xor i64 %29, %24
  ret i64 %30
}